; Function Attrs: mustprogress uwtable
define void @_ZN3zmq12zap_client_tC2EPNS_14session_base_tERKNSt7__cxx1112basic_stringIcSt11char_traitsIcESaIcEEERKNS_9options_tE(ptr noundef nonnull align 8 dereferenceable(72) %this, ptr nocapture noundef readonly %vtt, ptr nocapture noundef readnone %session_, ptr noundef nonnull align 8 dereferenceable(32) %peer_address_, ptr nocapture noundef nonnull readnone align 8 dereferenceable(1336) %options_) unnamed_addr #0 align 2 {
entry:
  %0 = load ptr, ptr %vtt, align 8
  store ptr %0, ptr %this, align 8
  %1 = getelementptr inbounds i8, ptr %vtt, i64 8
  %2 = load ptr, ptr %1, align 8
  %vbase.offset.ptr = getelementptr i8, ptr %0, i64 -24
  %vbase.offset = load i64, ptr %vbase.offset.ptr, align 8
  %add.ptr = getelementptr inbounds i8, ptr %this, i64 %vbase.offset
  store ptr %2, ptr %add.ptr, align 8
  %peer_address = getelementptr inbounds i8, ptr %this, i64 8
  tail call void @_ZNSt7__cxx1112basic_stringIcSt11char_traitsIcESaIcEEC1ERKS4_(ptr noundef nonnull align 8 dereferenceable(32) %peer_address, ptr noundef nonnull align 8 dereferenceable(32) %peer_address_)
  %status_code = getelementptr inbounds i8, ptr %this, i64 40
  tail call void @_ZNSt7__cxx1112basic_stringIcSt11char_traitsIcESaIcEEC1Ev(ptr noundef nonnull align 8 dereferenceable(32) %status_code) #13
  ret void
}